target datalayout = "e-m:e-p270:32:32-p271:32:32-p272:64:64-i64:64-i128:128-f80:128-n8:16:32:64-S128"
target triple = "x86_64-pc-linux-gnu"

%struct.varattrib_1b = type { i8, [0 x i8] }
%struct.anon = type { i32, [0 x i8] }

@.str.1 = private unnamed_addr constant [8 x i8] c"datum.c\00", align 1
@.str.3 = private unnamed_addr constant [22 x i8] c"unexpected typLen: %d\00", align 1
@__func__.datum_image_hash = private unnamed_addr constant [17 x i8] c"datum_image_hash\00", align 1

; Function Attrs: inlinehint nounwind uwtable
define internal ptr @DatumGetCString(i64 noundef %0) #2 {
  %2 = alloca i64, align 8
  store i64 %0, ptr %2, align 8
  %3 = load i64, ptr %2, align 8
  %4 = call ptr @DatumGetPointer(i64 noundef %3)
  ret ptr %4
}

; Function Attrs: inlinehint nounwind uwtable
define internal ptr @DatumGetPointer(i64 noundef %0) #2 {
  %2 = alloca i64, align 8
  store i64 %0, ptr %2, align 8
  %3 = load i64, ptr %2, align 8
  %4 = inttoptr i64 %3 to ptr
  ret ptr %4
}

; Function Attrs: nounwind uwtable
define dso_local i32 @datum_image_hash(i64 noundef %0, i1 noundef zeroext %1, i32 noundef %2) #0 {
  %4 = alloca i64, align 8
  %5 = alloca i8, align 1
  %6 = alloca i32, align 4
  %7 = alloca i64, align 8
  %8 = alloca i32, align 4
  %9 = alloca ptr, align 8
  %10 = alloca ptr, align 8
  store i64 %0, ptr %4, align 8
  %11 = zext i1 %1 to i8
  store i8 %11, ptr %5, align 1
  store i32 %2, ptr %6, align 4
  call void @llvm.lifetime.start.p0(i64 8, ptr %7) #7
  call void @llvm.lifetime.start.p0(i64 4, ptr %8) #7
  %12 = load i8, ptr %5, align 1, !range !4, !noundef !5
  %13 = trunc i8 %12 to i1
  br i1 %13, label %14, label %16

14:                                               ; preds = %3
  %15 = call i32 @hash_bytes(ptr noundef %4, i32 noundef 8)
  store i32 %15, ptr %8, align 4
  br label %88

16:                                               ; preds = %3
  %17 = load i32, ptr %6, align 4
  %18 = icmp sgt i32 %17, 0
  br i1 %18, label %19, label %24

19:                                               ; preds = %16
  %20 = load i64, ptr %4, align 8
  %21 = call ptr @DatumGetPointer(i64 noundef %20)
  %22 = load i32, ptr %6, align 4
  %23 = call i32 @hash_bytes(ptr noundef %21, i32 noundef %22)
  store i32 %23, ptr %8, align 4
  br label %87

24:                                               ; preds = %16
  %25 = load i32, ptr %6, align 4
  %26 = icmp eq i32 %25, -1
  br i1 %26, label %27, label %60

27:                                               ; preds = %24
  call void @llvm.lifetime.start.p0(i64 8, ptr %9) #7
  %28 = load i64, ptr %4, align 8
  %29 = call i64 @toast_raw_datum_size(i64 noundef %28)
  store i64 %29, ptr %7, align 8
  %30 = load i64, ptr %4, align 8
  %31 = call ptr @DatumGetPointer(i64 noundef %30)
  %32 = call ptr @pg_detoast_datum_packed(ptr noundef %31)
  store ptr %32, ptr %9, align 8
  %33 = load ptr, ptr %9, align 8
  %34 = getelementptr inbounds nuw %struct.varattrib_1b, ptr %33, i32 0, i32 0
  %35 = load i8, ptr %34, align 1
  %36 = zext i8 %35 to i32
  %37 = and i32 %36, 1
  %38 = icmp eq i32 %37, 1
  br i1 %38, label %39, label %43

39:                                               ; preds = %27
  %40 = load ptr, ptr %9, align 8
  %41 = getelementptr inbounds nuw %struct.varattrib_1b, ptr %40, i32 0, i32 1
  %42 = getelementptr inbounds [0 x i8], ptr %41, i64 0, i64 0
  br label %47

43:                                               ; preds = %27
  %44 = load ptr, ptr %9, align 8
  %45 = getelementptr inbounds nuw %struct.anon, ptr %44, i32 0, i32 1
  %46 = getelementptr inbounds [0 x i8], ptr %45, i64 0, i64 0
  br label %47

47:                                               ; preds = %43, %39
  %48 = phi ptr [ %42, %39 ], [ %46, %43 ]
  %49 = load i64, ptr %7, align 8
  %50 = sub i64 %49, 4
  %51 = trunc i64 %50 to i32
  %52 = call i32 @hash_bytes(ptr noundef %48, i32 noundef %51)
  store i32 %52, ptr %8, align 4
  %53 = load ptr, ptr %9, align 8
  %54 = load i64, ptr %4, align 8
  %55 = inttoptr i64 %54 to ptr
  %56 = icmp ne ptr %53, %55
  br i1 %56, label %57, label %59

57:                                               ; preds = %47
  %58 = load ptr, ptr %9, align 8
  call void @pfree(ptr noundef %58)
  br label %59

59:                                               ; preds = %57, %47
  call void @llvm.lifetime.end.p0(i64 8, ptr %9) #7
  br label %86

60:                                               ; preds = %24
  %61 = load i32, ptr %6, align 4
  %62 = icmp eq i32 %61, -2
  br i1 %62, label %63, label %73

63:                                               ; preds = %60
  call void @llvm.lifetime.start.p0(i64 8, ptr %10) #7
  %64 = load i64, ptr %4, align 8
  %65 = call ptr @DatumGetCString(i64 noundef %64)
  store ptr %65, ptr %10, align 8
  %66 = load ptr, ptr %10, align 8
  %67 = call i64 @strlen(ptr noundef %66) #9
  %68 = add i64 %67, 1
  store i64 %68, ptr %7, align 8
  %69 = load ptr, ptr %10, align 8
  %70 = load i64, ptr %7, align 8
  %71 = trunc i64 %70 to i32
  %72 = call i32 @hash_bytes(ptr noundef %69, i32 noundef %71)
  store i32 %72, ptr %8, align 4
  call void @llvm.lifetime.end.p0(i64 8, ptr %10) #7
  br label %85

73:                                               ; preds = %60
  br label %74

74:                                               ; preds = %73
  br i1 true, label %75, label %77

75:                                               ; preds = %74
  %76 = call zeroext i1 @errstart_cold(i32 noundef 21, ptr noundef null) #8
  br i1 %76, label %79, label %82

77:                                               ; preds = %74
  %78 = call zeroext i1 @errstart(i32 noundef 21, ptr noundef null)
  br i1 %78, label %79, label %82

79:                                               ; preds = %77, %75
  %80 = load i32, ptr %6, align 4
  %81 = call i32 (ptr, ...) @errmsg_internal(ptr noundef @.str.3, i32 noundef %80)
  call void @errfinish(ptr noundef @.str.1, i32 noundef 372, ptr noundef @__func__.datum_image_hash)
  br label %82

82:                                               ; preds = %79, %77, %75
  unreachable

83:                                               ; No predecessors!
  br label %84

84:                                               ; preds = %83
  store i32 0, ptr %8, align 4
  br label %85

85:                                               ; preds = %84, %63
  br label %86

86:                                               ; preds = %85, %59
  br label %87

87:                                               ; preds = %86, %19
  br label %88

88:                                               ; preds = %87, %14
  %89 = load i32, ptr %8, align 4
  call void @llvm.lifetime.end.p0(i64 4, ptr %8) #7
  call void @llvm.lifetime.end.p0(i64 8, ptr %7) #7
  ret i32 %89
}