; Function Attrs: nounwind uwtable
define dso_local i32 @datum_image_hash(i64 noundef %0, i1 noundef zeroext %1, i32 noundef %2) local_unnamed_addr #0 {
  %4 = alloca i64, align 8
  store i64 %0, ptr %4, align 8
  br i1 %1, label %5, label %7

5:                                                ; preds = %3
  %6 = call i32 @hash_bytes(ptr noundef nonnull %4, i32 noundef 8) #9
  br label %33

7:                                                ; preds = %3
  %8 = icmp sgt i32 %2, 0
  br i1 %8, label %9, label %12

9:                                                ; preds = %7
  %10 = inttoptr i64 %0 to ptr
  %11 = tail call i32 @hash_bytes(ptr noundef %10, i32 noundef %2) #9
  br label %33

12:                                               ; preds = %7
  switch i32 %2, label %30 [
    i32 -1, label %13
    i32 -2, label %24
  ]

13:                                               ; preds = %12
  %14 = tail call i64 @toast_raw_datum_size(i64 noundef %0) #9
  %15 = inttoptr i64 %0 to ptr
  %16 = tail call ptr @pg_detoast_datum_packed(ptr noundef %15) #9
  %17 = load i8, ptr %16, align 1
  %18 = and i8 %17, 1
  %.not = icmp eq i8 %18, 0
  %.v = select i1 %.not, i64 4, i64 1
  %19 = getelementptr inbounds nuw i8, ptr %16, i64 %.v
  %20 = trunc i64 %14 to i32
  %21 = add i32 %20, -4
  %22 = tail call i32 @hash_bytes(ptr noundef nonnull %19, i32 noundef %21) #9
  %.not17 = icmp eq ptr %16, %15
  br i1 %.not17, label %33, label %23

23:                                               ; preds = %13
  tail call void @pfree(ptr noundef nonnull %16) #9
  br label %33

24:                                               ; preds = %12
  %25 = inttoptr i64 %0 to ptr
  %26 = tail call i64 @strlen(ptr noundef nonnull dereferenceable(1) %25) #10
  %27 = trunc i64 %26 to i32
  %28 = add i32 %27, 1
  %29 = tail call i32 @hash_bytes(ptr noundef nonnull %25, i32 noundef %28) #9
  br label %33

30:                                               ; preds = %12
  %31 = tail call zeroext i1 @errstart_cold(i32 noundef 21, ptr noundef null) #8
  tail call void @llvm.assume(i1 %31)
  %32 = tail call i32 (ptr, ...) @errmsg_internal(ptr noundef nonnull @.str.3, i32 noundef %2) #9
  tail call void @errfinish(ptr noundef nonnull @.str.1, i32 noundef 372, ptr noundef nonnull @__func__.datum_image_hash) #9
  unreachable

33:                                               ; preds = %13, %23, %9, %24, %5
  %.0 = phi i32 [ %6, %5 ], [ %11, %9 ], [ %29, %24 ], [ %22, %23 ], [ %22, %13 ]
  ret i32 %.0
}